target datalayout = "e-m:e-p270:32:32-p271:32:32-p272:64:64-i64:64-i128:128-f80:128-n8:16:32:64-S128"
target triple = "x86_64-pc-linux-gnu"

%struct.ARKodeMemRec = type { ptr, double, ptr, i32, i32, double, double, ptr, i32, double, ptr, i32, i32, ptr, ptr, i32, ptr, ptr, i32, ptr, ptr, ptr, ptr, ptr, ptr, ptr, ptr, ptr, ptr, ptr, ptr, ptr, ptr, ptr, i32, ptr, ptr, i32, ptr, i32, ptr, ptr, ptr, ptr, ptr, ptr, ptr, ptr, ptr, ptr, ptr, ptr, ptr, ptr, ptr, ptr, ptr, ptr, ptr, ptr, ptr, ptr, ptr, ptr, ptr, ptr, i32, ptr, ptr, ptr, ptr, ptr, ptr, ptr, i32, ptr, ptr, ptr, i32, ptr, ptr, ptr, ptr, ptr, ptr, ptr, i32, i32, i32, i32, double, double, double, double, double, double, double, double, double, double, i32, ptr, i64, i32, i32, i32, i32, i64, i64, i32, i64, i64, i64, i64, i64, i64, i64, double, double, double, double, double, i32, double, double, i32, i32, i32, i32, i32, i32, i32, i32, ptr, i32, ptr, ptr, ptr, ptr, i32, i32, i32 }
%struct._generic_N_Vector = type { ptr, ptr, ptr }
%struct._generic_N_Vector_Ops = type { ptr, ptr, ptr, ptr, ptr, ptr, ptr, ptr, ptr, ptr, ptr, ptr, ptr, ptr, ptr, ptr, ptr, ptr, ptr, ptr, ptr, ptr, ptr, ptr, ptr, ptr, ptr, ptr, ptr, ptr, ptr, ptr, ptr, ptr, ptr, ptr, ptr, ptr, ptr, ptr, ptr, ptr, ptr, ptr, ptr, ptr, ptr, ptr, ptr, ptr, ptr, ptr, ptr, ptr, ptr, ptr }

@__func__.ARKodeResize = private unnamed_addr constant [13 x i8] c"ARKodeResize\00", align 1
@.str = private unnamed_addr constant [115 x i8] c"generated/home/dtcxzyw/WorkSpace/Projects/compilers/llvm-opt-benchmark/bench/sundials/sundials/src/arkode/arkode.c\00", align 1
@.str.1 = private unnamed_addr constant [27 x i8] c"arkode_mem = NULL illegal.\00", align 1
@.str.2 = private unnamed_addr constant [35 x i8] c"Attempt to call before ARKodeInit.\00", align 1
@.str.3 = private unnamed_addr constant [19 x i8] c"y0 = NULL illegal.\00", align 1
@.str.4 = private unnamed_addr constant [24 x i8] c"Unable to resize vector\00", align 1
@.str.5 = private unnamed_addr constant [36 x i8] c"Interpolation module resize failure\00", align 1

; Function Attrs: nounwind uwtable
define i32 @ARKodeResize(ptr noundef %0, ptr noundef %1, double noundef %2, double noundef %3, ptr noundef %4, ptr noundef %5) #0 {
  %7 = alloca i32, align 4
  %8 = alloca ptr, align 8
  %9 = alloca ptr, align 8
  %10 = alloca double, align 8
  %11 = alloca double, align 8
  %12 = alloca ptr, align 8
  %13 = alloca ptr, align 8
  %14 = alloca i32, align 4
  %15 = alloca i64, align 8
  %16 = alloca i64, align 8
  %17 = alloca i64, align 8
  %18 = alloca i64, align 8
  %19 = alloca i32, align 4
  %20 = alloca ptr, align 8
  %21 = alloca i32, align 4
  store ptr %0, ptr %8, align 8, !tbaa !3
  store ptr %1, ptr %9, align 8, !tbaa !7
  store double %2, ptr %10, align 8, !tbaa !9
  store double %3, ptr %11, align 8, !tbaa !9
  store ptr %4, ptr %12, align 8, !tbaa !3
  store ptr %5, ptr %13, align 8, !tbaa !3
  call void @llvm.lifetime.start.p0(i64 4, ptr %14) #10
  call void @llvm.lifetime.start.p0(i64 8, ptr %15) #10
  call void @llvm.lifetime.start.p0(i64 8, ptr %16) #10
  call void @llvm.lifetime.start.p0(i64 8, ptr %17) #10
  call void @llvm.lifetime.start.p0(i64 8, ptr %18) #10
  call void @llvm.lifetime.start.p0(i64 4, ptr %19) #10
  call void @llvm.lifetime.start.p0(i64 8, ptr %20) #10
  %22 = load ptr, ptr %8, align 8, !tbaa !3
  %23 = icmp eq ptr %22, null
  br i1 %23, label %24, label %25

24:                                               ; preds = %6
  call void (ptr, i32, i32, ptr, ptr, ptr, ...) @arkProcessError(ptr noundef null, i32 noundef -21, i32 noundef 90, ptr noundef @__func__.ARKodeResize, ptr noundef @.str, ptr noundef @.str.1)
  store i32 -21, ptr %7, align 4
  store i32 1, ptr %21, align 4
  br label %198

25:                                               ; preds = %6
  %26 = load ptr, ptr %8, align 8, !tbaa !3
  store ptr %26, ptr %20, align 8, !tbaa !11
  %27 = load ptr, ptr %20, align 8, !tbaa !11
  %28 = getelementptr inbounds nuw %struct.ARKodeMemRec, ptr %27, i32 0, i32 127
  %29 = load i32, ptr %28, align 8, !tbaa !13
  %30 = icmp eq i32 %29, 0
  br i1 %30, label %31, label %33

31:                                               ; preds = %25
  %32 = load ptr, ptr %20, align 8, !tbaa !11
  call void (ptr, i32, i32, ptr, ptr, ptr, ...) @arkProcessError(ptr noundef %32, i32 noundef -23, i32 noundef 99, ptr noundef @__func__.ARKodeResize, ptr noundef @.str, ptr noundef @.str.2)
  store i32 -23, ptr %7, align 4
  store i32 1, ptr %21, align 4
  br label %198

33:                                               ; preds = %25
  %34 = load ptr, ptr %9, align 8, !tbaa !7
  %35 = icmp eq ptr %34, null
  br i1 %35, label %36, label %38

36:                                               ; preds = %33
  %37 = load ptr, ptr %20, align 8, !tbaa !11
  call void (ptr, i32, i32, ptr, ptr, ptr, ...) @arkProcessError(ptr noundef %37, i32 noundef -22, i32 noundef 107, ptr noundef @__func__.ARKodeResize, ptr noundef @.str, ptr noundef @.str.3)
  store i32 -22, ptr %7, align 4
  store i32 1, ptr %21, align 4
  br label %198

38:                                               ; preds = %33
  %39 = load double, ptr %11, align 8, !tbaa !9
  %40 = load ptr, ptr %20, align 8, !tbaa !11
  %41 = getelementptr inbounds nuw %struct.ARKodeMemRec, ptr %40, i32 0, i32 98
  store double %39, ptr %41, align 8, !tbaa !22
  %42 = load double, ptr %11, align 8, !tbaa !9
  %43 = load ptr, ptr %20, align 8, !tbaa !11
  %44 = getelementptr inbounds nuw %struct.ARKodeMemRec, ptr %43, i32 0, i32 118
  store double %42, ptr %44, align 8, !tbaa !23
  %45 = load double, ptr %10, align 8, !tbaa !9
  %46 = fcmp ole double %45, 0.000000e+00
  br i1 %46, label %47, label %48

47:                                               ; preds = %38
  store double 1.000000e+00, ptr %10, align 8, !tbaa !9
  br label %48

48:                                               ; preds = %47, %38
  %49 = load double, ptr %10, align 8, !tbaa !9
  %50 = fcmp une double %49, 1.000000e+00
  br i1 %50, label %51, label %107

51:                                               ; preds = %48
  %52 = load double, ptr %10, align 8, !tbaa !9
  %53 = load ptr, ptr %20, align 8, !tbaa !11
  %54 = getelementptr inbounds nuw %struct.ARKodeMemRec, ptr %53, i32 0, i32 97
  store double %52, ptr %54, align 8, !tbaa !24
  %55 = load double, ptr %10, align 8, !tbaa !9
  %56 = load ptr, ptr %20, align 8, !tbaa !11
  %57 = getelementptr inbounds nuw %struct.ARKodeMemRec, ptr %56, i32 0, i32 95
  %58 = load double, ptr %57, align 8, !tbaa !25
  %59 = fmul double %58, %55
  store double %59, ptr %57, align 8, !tbaa !25
  %60 = load ptr, ptr %20, align 8, !tbaa !11
  %61 = getelementptr inbounds nuw %struct.ARKodeMemRec, ptr %60, i32 0, i32 88
  %62 = load i32, ptr %61, align 8, !tbaa !26
  %63 = icmp ne i32 %62, 0
  br i1 %63, label %64, label %106

64:                                               ; preds = %51
  %65 = load ptr, ptr %20, align 8, !tbaa !11
  %66 = getelementptr inbounds nuw %struct.ARKodeMemRec, ptr %65, i32 0, i32 98
  %67 = load double, ptr %66, align 8, !tbaa !22
  %68 = load ptr, ptr %20, align 8, !tbaa !11
  %69 = getelementptr inbounds nuw %struct.ARKodeMemRec, ptr %68, i32 0, i32 95
  %70 = load double, ptr %69, align 8, !tbaa !25
  %71 = fadd double %67, %70
  %72 = load ptr, ptr %20, align 8, !tbaa !11
  %73 = getelementptr inbounds nuw %struct.ARKodeMemRec, ptr %72, i32 0, i32 90
  %74 = load double, ptr %73, align 8, !tbaa !27
  %75 = fsub double %71, %74
  %76 = load ptr, ptr %20, align 8, !tbaa !11
  %77 = getelementptr inbounds nuw %struct.ARKodeMemRec, ptr %76, i32 0, i32 95
  %78 = load double, ptr %77, align 8, !tbaa !25
  %79 = fmul double %75, %78
  %80 = fcmp ogt double %79, 0.000000e+00
  br i1 %80, label %81, label %105

81:                                               ; preds = %64
  %82 = load ptr, ptr %20, align 8, !tbaa !11
  %83 = getelementptr inbounds nuw %struct.ARKodeMemRec, ptr %82, i32 0, i32 90
  %84 = load double, ptr %83, align 8, !tbaa !27
  %85 = load ptr, ptr %20, align 8, !tbaa !11
  %86 = getelementptr inbounds nuw %struct.ARKodeMemRec, ptr %85, i32 0, i32 98
  %87 = load double, ptr %86, align 8, !tbaa !22
  %88 = fsub double %84, %87
  %89 = load ptr, ptr %20, align 8, !tbaa !11
  %90 = getelementptr inbounds nuw %struct.ARKodeMemRec, ptr %89, i32 0, i32 1
  %91 = load double, ptr %90, align 8, !tbaa !28
  %92 = call double @llvm.fmuladd.f64(double -4.000000e+00, double %91, double 1.000000e+00)
  %93 = fmul double %88, %92
  %94 = load ptr, ptr %20, align 8, !tbaa !11
  %95 = getelementptr inbounds nuw %struct.ARKodeMemRec, ptr %94, i32 0, i32 95
  store double %93, ptr %95, align 8, !tbaa !25
  %96 = load ptr, ptr %20, align 8, !tbaa !11
  %97 = getelementptr inbounds nuw %struct.ARKodeMemRec, ptr %96, i32 0, i32 95
  %98 = load double, ptr %97, align 8, !tbaa !25
  %99 = load ptr, ptr %20, align 8, !tbaa !11
  %100 = getelementptr inbounds nuw %struct.ARKodeMemRec, ptr %99, i32 0, i32 92
  %101 = load double, ptr %100, align 8, !tbaa !29
  %102 = fdiv double %98, %101
  %103 = load ptr, ptr %20, align 8, !tbaa !11
  %104 = getelementptr inbounds nuw %struct.ARKodeMemRec, ptr %103, i32 0, i32 97
  store double %102, ptr %104, align 8, !tbaa !24
  br label %105

105:                                              ; preds = %81, %64
  br label %106

106:                                              ; preds = %105, %51
  br label %107

107:                                              ; preds = %106, %48
  store i64 0, ptr %16, align 8, !tbaa !30
  store i64 0, ptr %15, align 8, !tbaa !30
  %108 = load ptr, ptr %9, align 8, !tbaa !7
  %109 = getelementptr inbounds nuw %struct._generic_N_Vector, ptr %108, i32 0, i32 1
  %110 = load ptr, ptr %109, align 8, !tbaa !31
  %111 = getelementptr inbounds nuw %struct._generic_N_Vector_Ops, ptr %110, i32 0, i32 4
  %112 = load ptr, ptr %111, align 8, !tbaa !34
  %113 = icmp ne ptr %112, null
  br i1 %113, label %114, label %116

114:                                              ; preds = %107
  %115 = load ptr, ptr %9, align 8, !tbaa !7
  call void @N_VSpace(ptr noundef %115, ptr noundef %15, ptr noundef %16)
  br label %116

116:                                              ; preds = %114, %107
  %117 = load i64, ptr %15, align 8, !tbaa !30
  %118 = load ptr, ptr %20, align 8, !tbaa !11
  %119 = getelementptr inbounds nuw %struct.ARKodeMemRec, ptr %118, i32 0, i32 113
  %120 = load i64, ptr %119, align 8, !tbaa !36
  %121 = sub nsw i64 %117, %120
  store i64 %121, ptr %17, align 8, !tbaa !30
  %122 = load i64, ptr %16, align 8, !tbaa !30
  %123 = load ptr, ptr %20, align 8, !tbaa !11
  %124 = getelementptr inbounds nuw %struct.ARKodeMemRec, ptr %123, i32 0, i32 114
  %125 = load i64, ptr %124, align 8, !tbaa !37
  %126 = sub nsw i64 %122, %125
  store i64 %126, ptr %18, align 8, !tbaa !30
  %127 = load i64, ptr %15, align 8, !tbaa !30
  %128 = load ptr, ptr %20, align 8, !tbaa !11
  %129 = getelementptr inbounds nuw %struct.ARKodeMemRec, ptr %128, i32 0, i32 113
  store i64 %127, ptr %129, align 8, !tbaa !36
  %130 = load i64, ptr %16, align 8, !tbaa !30
  %131 = load ptr, ptr %20, align 8, !tbaa !11
  %132 = getelementptr inbounds nuw %struct.ARKodeMemRec, ptr %131, i32 0, i32 114
  store i64 %130, ptr %132, align 8, !tbaa !37
  %133 = load ptr, ptr %20, align 8, !tbaa !11
  %134 = load ptr, ptr %12, align 8, !tbaa !3
  %135 = load ptr, ptr %13, align 8, !tbaa !3
  %136 = load i64, ptr %17, align 8, !tbaa !30
  %137 = load i64, ptr %18, align 8, !tbaa !30
  %138 = load ptr, ptr %9, align 8, !tbaa !7
  %139 = call i32 @arkResizeVectors(ptr noundef %133, ptr noundef %134, ptr noundef %135, i64 noundef %136, i64 noundef %137, ptr noundef %138)
  store i32 %139, ptr %14, align 4, !tbaa !38
  %140 = load i32, ptr %14, align 4, !tbaa !38
  %141 = icmp ne i32 %140, 0
  br i1 %141, label %144, label %142

142:                                              ; preds = %116
  %143 = load ptr, ptr %20, align 8, !tbaa !11
  call void (ptr, i32, i32, ptr, ptr, ptr, ...) @arkProcessError(ptr noundef %143, i32 noundef -20, i32 noundef 151, ptr noundef @__func__.ARKodeResize, ptr noundef @.str, ptr noundef @.str.4)
  store i32 -20, ptr %7, align 4
  store i32 1, ptr %21, align 4
  br label %198

144:                                              ; preds = %116
  %145 = load ptr, ptr %20, align 8, !tbaa !11
  %146 = getelementptr inbounds nuw %struct.ARKodeMemRec, ptr %145, i32 0, i32 85
  %147 = load ptr, ptr %146, align 8, !tbaa !39
  %148 = icmp ne ptr %147, null
  br i1 %148, label %149, label %167

149:                                              ; preds = %144
  %150 = load ptr, ptr %20, align 8, !tbaa !11
  %151 = load ptr, ptr %20, align 8, !tbaa !11
  %152 = getelementptr inbounds nuw %struct.ARKodeMemRec, ptr %151, i32 0, i32 85
  %153 = load ptr, ptr %152, align 8, !tbaa !39
  %154 = load ptr, ptr %12, align 8, !tbaa !3
  %155 = load ptr, ptr %13, align 8, !tbaa !3
  %156 = load i64, ptr %17, align 8, !tbaa !30
  %157 = load i64, ptr %18, align 8, !tbaa !30
  %158 = load ptr, ptr %9, align 8, !tbaa !7
  %159 = call i32 @arkInterpResize(ptr noundef %150, ptr noundef %153, ptr noundef %154, ptr noundef %155, i64 noundef %156, i64 noundef %157, ptr noundef %158)
  store i32 %159, ptr %19, align 4, !tbaa !38
  %160 = load i32, ptr %19, align 4, !tbaa !38
  %161 = icmp ne i32 %160, 0
  br i1 %161, label %162, label %166

162:                                              ; preds = %149
  %163 = load ptr, ptr %20, align 8, !tbaa !11
  %164 = load i32, ptr %19, align 4, !tbaa !38
  call void (ptr, i32, i32, ptr, ptr, ptr, ...) @arkProcessError(ptr noundef %163, i32 noundef %164, i32 noundef 163, ptr noundef @__func__.ARKodeResize, ptr noundef @.str, ptr noundef @.str.5)
  %165 = load i32, ptr %19, align 4, !tbaa !38
  store i32 %165, ptr %7, align 4
  store i32 1, ptr %21, align 4
  br label %198

166:                                              ; preds = %149
  br label %167

167:                                              ; preds = %166, %144
  %168 = load ptr, ptr %9, align 8, !tbaa !7
  %169 = load ptr, ptr %20, align 8, !tbaa !11
  %170 = getelementptr inbounds nuw %struct.ARKodeMemRec, ptr %169, i32 0, i32 76
  %171 = load ptr, ptr %170, align 8, !tbaa !40
  call void @N_VScale(double noundef 1.000000e+00, ptr noundef %168, ptr noundef %171)
  %172 = load ptr, ptr %20, align 8, !tbaa !11
  %173 = getelementptr inbounds nuw %struct.ARKodeMemRec, ptr %172, i32 0, i32 78
  store i32 0, ptr %173, align 8, !tbaa !41
  %174 = load ptr, ptr %20, align 8, !tbaa !11
  %175 = getelementptr inbounds nuw %struct.ARKodeMemRec, ptr %174, i32 0, i32 18
  store i32 0, ptr %175, align 8, !tbaa !42
  %176 = load ptr, ptr %20, align 8, !tbaa !11
  %177 = getelementptr inbounds nuw %struct.ARKodeMemRec, ptr %176, i32 0, i32 128
  store i32 1, ptr %177, align 4, !tbaa !43
  %178 = load ptr, ptr %20, align 8, !tbaa !11
  %179 = getelementptr inbounds nuw %struct.ARKodeMemRec, ptr %178, i32 0, i32 129
  store i32 2, ptr %179, align 8, !tbaa !44
  %180 = load ptr, ptr %20, align 8, !tbaa !11
  %181 = getelementptr inbounds nuw %struct.ARKodeMemRec, ptr %180, i32 0, i32 130
  store i32 1, ptr %181, align 4, !tbaa !45
  %182 = load ptr, ptr %20, align 8, !tbaa !11
  %183 = getelementptr inbounds nuw %struct.ARKodeMemRec, ptr %182, i32 0, i32 26
  %184 = load ptr, ptr %183, align 8, !tbaa !46
  %185 = icmp ne ptr %184, null
  br i1 %185, label %186, label %197

186:                                              ; preds = %167
  %187 = load ptr, ptr %20, align 8, !tbaa !11
  %188 = getelementptr inbounds nuw %struct.ARKodeMemRec, ptr %187, i32 0, i32 26
  %189 = load ptr, ptr %188, align 8, !tbaa !46
  %190 = load ptr, ptr %20, align 8, !tbaa !11
  %191 = load ptr, ptr %9, align 8, !tbaa !7
  %192 = load double, ptr %10, align 8, !tbaa !9
  %193 = load double, ptr %11, align 8, !tbaa !9
  %194 = load ptr, ptr %12, align 8, !tbaa !3
  %195 = load ptr, ptr %13, align 8, !tbaa !3
  %196 = call i32 %189(ptr noundef %190, ptr noundef %191, double noundef %192, double noundef %193, ptr noundef %194, ptr noundef %195)
  store i32 %196, ptr %7, align 4
  store i32 1, ptr %21, align 4
  br label %198

197:                                              ; preds = %167
  store i32 0, ptr %7, align 4
  store i32 1, ptr %21, align 4
  br label %198

198:                                              ; preds = %197, %186, %162, %142, %36, %31, %24
  call void @llvm.lifetime.end.p0(i64 8, ptr %20) #10
  call void @llvm.lifetime.end.p0(i64 4, ptr %19) #10
  call void @llvm.lifetime.end.p0(i64 8, ptr %18) #10
  call void @llvm.lifetime.end.p0(i64 8, ptr %17) #10
  call void @llvm.lifetime.end.p0(i64 8, ptr %16) #10
  call void @llvm.lifetime.end.p0(i64 8, ptr %15) #10
  call void @llvm.lifetime.end.p0(i64 4, ptr %14) #10
  %199 = load i32, ptr %7, align 4
  ret i32 %199
}