; Function Attrs: nounwind uwtable
define i32 @ARKodeResize(ptr noundef %0, ptr noundef %1, double noundef %2, double noundef %3, ptr noundef %4, ptr noundef %5) local_unnamed_addr #0 {
  %7 = alloca i64, align 8
  %8 = alloca i64, align 8
  call void @llvm.lifetime.start.p0(i64 8, ptr nonnull %7) #16
  call void @llvm.lifetime.start.p0(i64 8, ptr nonnull %8) #16
  %9 = icmp eq ptr %0, null
  br i1 %9, label %10, label %11

10:                                               ; preds = %6
  tail call void (ptr, i32, i32, ptr, ptr, ptr, ...) @arkProcessError(ptr noundef null, i32 noundef -21, i32 noundef 90, ptr noundef nonnull @__func__.ARKodeResize, ptr noundef nonnull @.str, ptr noundef nonnull @.str.1)
  br label %82

11:                                               ; preds = %6
  %12 = getelementptr inbounds nuw i8, ptr %0, i64 960
  %13 = load i32, ptr %12, align 8, !tbaa !3
  %14 = icmp eq i32 %13, 0
  br i1 %14, label %15, label %16

15:                                               ; preds = %11
  tail call void (ptr, i32, i32, ptr, ptr, ptr, ...) @arkProcessError(ptr noundef nonnull %0, i32 noundef -23, i32 noundef 99, ptr noundef nonnull @__func__.ARKodeResize, ptr noundef nonnull @.str, ptr noundef nonnull @.str.2)
  br label %82

16:                                               ; preds = %11
  %17 = icmp eq ptr %1, null
  br i1 %17, label %18, label %19

18:                                               ; preds = %16
  tail call void (ptr, i32, i32, ptr, ptr, ptr, ...) @arkProcessError(ptr noundef nonnull %0, i32 noundef -22, i32 noundef 107, ptr noundef nonnull @__func__.ARKodeResize, ptr noundef nonnull @.str, ptr noundef nonnull @.str.3)
  br label %82

19:                                               ; preds = %16
  %20 = getelementptr inbounds nuw i8, ptr %0, i64 752
  store double %3, ptr %20, align 8, !tbaa !17
  %21 = getelementptr inbounds nuw i8, ptr %0, i64 896
  store double %3, ptr %21, align 8, !tbaa !18
  %22 = fcmp ugt double %2, 0.000000e+00
  %.069 = select i1 %22, double %2, double 1.000000e+00
  %23 = fcmp une double %.069, 1.000000e+00
  br i1 %23, label %24, label %47

24:                                               ; preds = %19
  %25 = getelementptr inbounds nuw i8, ptr %0, i64 744
  store double %.069, ptr %25, align 8, !tbaa !19
  %26 = getelementptr inbounds nuw i8, ptr %0, i64 728
  %27 = load double, ptr %26, align 8, !tbaa !20
  %28 = fmul double %.069, %27
  store double %28, ptr %26, align 8, !tbaa !20
  %29 = getelementptr inbounds nuw i8, ptr %0, i64 680
  %30 = load i32, ptr %29, align 8, !tbaa !21
  %.not = icmp eq i32 %30, 0
  br i1 %.not, label %47, label %31

31:                                               ; preds = %24
  %32 = fadd double %3, %28
  %33 = getelementptr inbounds nuw i8, ptr %0, i64 688
  %34 = load double, ptr %33, align 8, !tbaa !22
  %35 = fsub double %32, %34
  %36 = fmul double %28, %35
  %37 = fcmp ogt double %36, 0.000000e+00
  br i1 %37, label %38, label %47

38:                                               ; preds = %31
  %39 = fsub double %34, %3
  %40 = getelementptr inbounds nuw i8, ptr %0, i64 8
  %41 = load double, ptr %40, align 8, !tbaa !23
  %42 = tail call double @llvm.fmuladd.f64(double %41, double -4.000000e+00, double 1.000000e+00)
  %43 = fmul double %39, %42
  store double %43, ptr %26, align 8, !tbaa !20
  %44 = getelementptr inbounds nuw i8, ptr %0, i64 704
  %45 = load double, ptr %44, align 8, !tbaa !24
  %46 = fdiv double %43, %45
  store double %46, ptr %25, align 8, !tbaa !19
  br label %47

47:                                               ; preds = %24, %38, %31, %19
  store i64 0, ptr %8, align 8, !tbaa !25
  store i64 0, ptr %7, align 8, !tbaa !25
  %48 = getelementptr inbounds nuw i8, ptr %1, i64 8
  %49 = load ptr, ptr %48, align 8, !tbaa !26
  %50 = getelementptr inbounds nuw i8, ptr %49, i64 32
  %51 = load ptr, ptr %50, align 8, !tbaa !29
  %.not76 = icmp eq ptr %51, null
  br i1 %.not76, label %53, label %52

52:                                               ; preds = %47
  call void @N_VSpace(ptr noundef nonnull %1, ptr noundef nonnull %7, ptr noundef nonnull %8) #16
  %.pre = load i64, ptr %7, align 8, !tbaa !25
  %.pre81 = load i64, ptr %8, align 8, !tbaa !25
  br label %53

53:                                               ; preds = %52, %47
  %54 = phi i64 [ %.pre81, %52 ], [ 0, %47 ]
  %55 = phi i64 [ %.pre, %52 ], [ 0, %47 ]
  %56 = getelementptr inbounds nuw i8, ptr %0, i64 856
  %57 = load i64, ptr %56, align 8, !tbaa !31
  %58 = sub nsw i64 %55, %57
  %59 = getelementptr inbounds nuw i8, ptr %0, i64 864
  %60 = load i64, ptr %59, align 8, !tbaa !32
  %61 = sub nsw i64 %54, %60
  store i64 %55, ptr %56, align 8, !tbaa !31
  store i64 %54, ptr %59, align 8, !tbaa !32
  %62 = call i32 @arkResizeVectors(ptr noundef nonnull %0, ptr noundef %4, ptr noundef %5, i64 noundef %58, i64 noundef %61, ptr noundef nonnull %1)
  %.not77 = icmp eq i32 %62, 0
  br i1 %.not77, label %63, label %64

63:                                               ; preds = %53
  call void (ptr, i32, i32, ptr, ptr, ptr, ...) @arkProcessError(ptr noundef nonnull %0, i32 noundef -20, i32 noundef 151, ptr noundef nonnull @__func__.ARKodeResize, ptr noundef nonnull @.str, ptr noundef nonnull @.str.4)
  br label %82

64:                                               ; preds = %53
  %65 = getelementptr inbounds nuw i8, ptr %0, i64 664
  %66 = load ptr, ptr %65, align 8, !tbaa !33
  %.not78 = icmp eq ptr %66, null
  br i1 %.not78, label %70, label %67

67:                                               ; preds = %64
  %68 = call i32 @arkInterpResize(ptr noundef nonnull %0, ptr noundef nonnull %66, ptr noundef %4, ptr noundef %5, i64 noundef %58, i64 noundef %61, ptr noundef nonnull %1) #16
  %.not79 = icmp eq i32 %68, 0
  br i1 %.not79, label %70, label %69

69:                                               ; preds = %67
  call void (ptr, i32, i32, ptr, ptr, ptr, ...) @arkProcessError(ptr noundef nonnull %0, i32 noundef %68, i32 noundef 163, ptr noundef nonnull @__func__.ARKodeResize, ptr noundef nonnull @.str, ptr noundef nonnull @.str.5)
  br label %82

70:                                               ; preds = %67, %64
  %71 = getelementptr inbounds nuw i8, ptr %0, i64 592
  %72 = load ptr, ptr %71, align 8, !tbaa !34
  call void @N_VScale(double noundef 1.000000e+00, ptr noundef nonnull %1, ptr noundef %72) #16
  %73 = getelementptr inbounds nuw i8, ptr %0, i64 608
  store i32 0, ptr %73, align 8, !tbaa !35
  %74 = getelementptr inbounds nuw i8, ptr %0, i64 128
  store i32 0, ptr %74, align 8, !tbaa !36
  %75 = getelementptr inbounds nuw i8, ptr %0, i64 964
  store i32 1, ptr %75, align 4, !tbaa !37
  %76 = getelementptr inbounds nuw i8, ptr %0, i64 968
  store i32 2, ptr %76, align 8, !tbaa !38
  %77 = getelementptr inbounds nuw i8, ptr %0, i64 972
  store i32 1, ptr %77, align 4, !tbaa !39
  %78 = getelementptr inbounds nuw i8, ptr %0, i64 192
  %79 = load ptr, ptr %78, align 8, !tbaa !40
  %.not80 = icmp eq ptr %79, null
  br i1 %.not80, label %82, label %80

80:                                               ; preds = %70
  %81 = call i32 %79(ptr noundef nonnull %0, ptr noundef nonnull %1, double noundef %.069, double noundef %3, ptr noundef %4, ptr noundef %5) #16
  br label %82

82:                                               ; preds = %70, %80, %69, %63, %18, %15, %10
  %.0 = phi i32 [ -21, %10 ], [ -23, %15 ], [ -22, %18 ], [ %68, %69 ], [ %81, %80 ], [ -20, %63 ], [ 0, %70 ]
  call void @llvm.lifetime.end.p0(i64 8, ptr nonnull %8) #16
  call void @llvm.lifetime.end.p0(i64 8, ptr nonnull %7) #16
  ret i32 %.0
}